; Function Attrs: mustprogress uwtable
define hidden void @_ZN3smt10theory_seq19insert_branch_startEjj(ptr noundef nonnull align 8 dereferenceable(4328) %0, i32 noundef %1, i32 noundef %2) local_unnamed_addr #4 align 2 personality ptr @__gxx_personality_v0 {
.noexc:
  %3 = alloca %struct._key_data, align 4
  %4 = getelementptr inbounds nuw i8, ptr %0, i64 4296
  call void @llvm.lifetime.start.p0(i64 8, ptr nonnull %3) #22
  store i32 %1, ptr %3, align 4, !tbaa !404
  %5 = getelementptr inbounds nuw i8, ptr %3, i64 4
  store i32 %2, ptr %5, align 4, !tbaa !407
  call void @_ZN14core_hashtableI17default_map_entryIjjEN9table2mapIS1_6u_hash4u_eqE15entry_hash_procENS5_13entry_eq_procEE6insertEO9_key_dataIjjE(ptr noundef nonnull align 8 dereferenceable(24) %4, ptr noundef nonnull align 4 dereferenceable(8) %3)
  call void @llvm.lifetime.end.p0(i64 8, ptr nonnull %3) #22
  %6 = getelementptr inbounds nuw i8, ptr %0, i64 3976
  %7 = getelementptr inbounds nuw i8, ptr %0, i64 3992
  %8 = call noundef ptr @_ZN6region8allocateEm(ptr noundef nonnull align 8 dereferenceable(40) %7, i64 noundef 24)
  store ptr getelementptr inbounds nuw inrange(-16, 24) (i8, ptr @_ZTVN3smt10theory_seq10pop_branchE, i64 16), ptr %8, align 8, !tbaa !265
  %9 = getelementptr inbounds nuw i8, ptr %8, i64 8
  store ptr %0, ptr %9, align 8
  %.sroa.6.8..sroa_idx = getelementptr inbounds nuw i8, ptr %8, i64 16
  store i32 %1, ptr %.sroa.6.8..sroa_idx, align 8
  %10 = load ptr, ptr %6, align 8, !tbaa !267
  %11 = icmp eq ptr %10, null
  br i1 %11, label %.noexc2, label %12

12:                                               ; preds = %.noexc
  %13 = getelementptr inbounds i8, ptr %10, i64 -4
  %14 = load i32, ptr %13, align 4, !tbaa !195
  %15 = getelementptr inbounds i8, ptr %10, i64 -8
  %16 = load i32, ptr %15, align 4, !tbaa !195
  %17 = icmp eq i32 %14, %16
  br i1 %17, label %.noexc2, label %18

.noexc2:                                          ; preds = %12, %.noexc
  call void @_ZN6vectorIP5trailLb0EjE13expand_vectorEv(ptr noundef nonnull align 8 dereferenceable(56) %6)
  %.pre.i.i = load ptr, ptr %6, align 8, !tbaa !267
  %.phi.trans.insert.i.i = getelementptr inbounds i8, ptr %.pre.i.i, i64 -4
  %.pre2.i.i = load i32, ptr %.phi.trans.insert.i.i, align 4, !tbaa !195
  br label %18

18:                                               ; preds = %.noexc2, %12
  %19 = phi i32 [ %.pre2.i.i, %.noexc2 ], [ %14, %12 ]
  %20 = phi ptr [ %.pre.i.i, %.noexc2 ], [ %10, %12 ]
  %21 = getelementptr inbounds i8, ptr %20, i64 -4
  %22 = zext i32 %19 to i64
  %23 = getelementptr inbounds nuw ptr, ptr %20, i64 %22
  store ptr %8, ptr %23, align 8, !tbaa !268
  %24 = add i32 %19, 1
  store i32 %24, ptr %21, align 4, !tbaa !195
  ret void
}